target datalayout = "e-m:e-p270:32:32-p271:32:32-p272:64:64-i64:64-i128:128-f80:128-n8:16:32:64-S128"
target triple = "x86_64-pc-linux-gnu"

%struct._stmt = type { i32, %union.anon.11, i32, i32, i32, i32 }
%union.anon.11 = type { %struct.anon.12 }
%struct.anon.12 = type { ptr, ptr, ptr, ptr, ptr, ptr, ptr }

@PyExc_ValueError = external global ptr, align 8
@.str.2 = private unnamed_addr constant [41 x i8] c"field 'name' is required for FunctionDef\00", align 1
@.str.3 = private unnamed_addr constant [41 x i8] c"field 'args' is required for FunctionDef\00", align 1

; Function Attrs: nounwind uwtable
define hidden ptr @_PyAST_FunctionDef(ptr noundef %0, ptr noundef %1, ptr noundef %2, ptr noundef %3, ptr noundef %4, ptr noundef %5, ptr noundef %6, i32 noundef %7, i32 noundef %8, i32 noundef %9, i32 noundef %10, ptr noundef %11) #0 {
  %13 = alloca ptr, align 8
  %14 = alloca ptr, align 8
  %15 = alloca ptr, align 8
  %16 = alloca ptr, align 8
  %17 = alloca ptr, align 8
  %18 = alloca ptr, align 8
  %19 = alloca ptr, align 8
  %20 = alloca ptr, align 8
  %21 = alloca i32, align 4
  %22 = alloca i32, align 4
  %23 = alloca i32, align 4
  %24 = alloca i32, align 4
  %25 = alloca ptr, align 8
  %26 = alloca ptr, align 8
  %27 = alloca i32, align 4
  store ptr %0, ptr %14, align 8, !tbaa !13
  store ptr %1, ptr %15, align 8, !tbaa !36
  store ptr %2, ptr %16, align 8, !tbaa !26
  store ptr %3, ptr %17, align 8, !tbaa !26
  store ptr %4, ptr %18, align 8, !tbaa !34
  store ptr %5, ptr %19, align 8, !tbaa !13
  store ptr %6, ptr %20, align 8, !tbaa !26
  store i32 %7, ptr %21, align 4, !tbaa !38
  store i32 %8, ptr %22, align 4, !tbaa !38
  store i32 %9, ptr %23, align 4, !tbaa !38
  store i32 %10, ptr %24, align 4, !tbaa !38
  store ptr %11, ptr %25, align 8, !tbaa !24
  call void @llvm.lifetime.start.p0(i64 8, ptr %26) #8
  %28 = load ptr, ptr %14, align 8, !tbaa !13
  %29 = icmp ne ptr %28, null
  br i1 %29, label %32, label %30

30:                                               ; preds = %12
  %31 = load ptr, ptr @PyExc_ValueError, align 8, !tbaa !13
  call void @PyErr_SetString(ptr noundef %31, ptr noundef @.str.2)
  store ptr null, ptr %13, align 8
  store i32 1, ptr %27, align 4
  br label %87

32:                                               ; preds = %12
  %33 = load ptr, ptr %15, align 8, !tbaa !36
  %34 = icmp ne ptr %33, null
  br i1 %34, label %37, label %35

35:                                               ; preds = %32
  %36 = load ptr, ptr @PyExc_ValueError, align 8, !tbaa !13
  call void @PyErr_SetString(ptr noundef %36, ptr noundef @.str.3)
  store ptr null, ptr %13, align 8
  store i32 1, ptr %27, align 4
  br label %87

37:                                               ; preds = %32
  %38 = load ptr, ptr %25, align 8, !tbaa !24
  %39 = call ptr @_PyArena_Malloc(ptr noundef %38, i64 noundef 80)
  store ptr %39, ptr %26, align 8, !tbaa !39
  %40 = load ptr, ptr %26, align 8, !tbaa !39
  %41 = icmp ne ptr %40, null
  br i1 %41, label %43, label %42

42:                                               ; preds = %37
  store ptr null, ptr %13, align 8
  store i32 1, ptr %27, align 4
  br label %87

43:                                               ; preds = %37
  %44 = load ptr, ptr %26, align 8, !tbaa !39
  %45 = getelementptr inbounds nuw %struct._stmt, ptr %44, i32 0, i32 0
  store i32 1, ptr %45, align 8, !tbaa !41
  %46 = load ptr, ptr %14, align 8, !tbaa !13
  %47 = load ptr, ptr %26, align 8, !tbaa !39
  %48 = getelementptr inbounds nuw %struct._stmt, ptr %47, i32 0, i32 1
  %49 = getelementptr inbounds nuw %struct.anon.12, ptr %48, i32 0, i32 0
  store ptr %46, ptr %49, align 8, !tbaa !21
  %50 = load ptr, ptr %15, align 8, !tbaa !36
  %51 = load ptr, ptr %26, align 8, !tbaa !39
  %52 = getelementptr inbounds nuw %struct._stmt, ptr %51, i32 0, i32 1
  %53 = getelementptr inbounds nuw %struct.anon.12, ptr %52, i32 0, i32 1
  store ptr %50, ptr %53, align 8, !tbaa !21
  %54 = load ptr, ptr %16, align 8, !tbaa !26
  %55 = load ptr, ptr %26, align 8, !tbaa !39
  %56 = getelementptr inbounds nuw %struct._stmt, ptr %55, i32 0, i32 1
  %57 = getelementptr inbounds nuw %struct.anon.12, ptr %56, i32 0, i32 2
  store ptr %54, ptr %57, align 8, !tbaa !21
  %58 = load ptr, ptr %17, align 8, !tbaa !26
  %59 = load ptr, ptr %26, align 8, !tbaa !39
  %60 = getelementptr inbounds nuw %struct._stmt, ptr %59, i32 0, i32 1
  %61 = getelementptr inbounds nuw %struct.anon.12, ptr %60, i32 0, i32 3
  store ptr %58, ptr %61, align 8, !tbaa !21
  %62 = load ptr, ptr %18, align 8, !tbaa !34
  %63 = load ptr, ptr %26, align 8, !tbaa !39
  %64 = getelementptr inbounds nuw %struct._stmt, ptr %63, i32 0, i32 1
  %65 = getelementptr inbounds nuw %struct.anon.12, ptr %64, i32 0, i32 4
  store ptr %62, ptr %65, align 8, !tbaa !21
  %66 = load ptr, ptr %19, align 8, !tbaa !13
  %67 = load ptr, ptr %26, align 8, !tbaa !39
  %68 = getelementptr inbounds nuw %struct._stmt, ptr %67, i32 0, i32 1
  %69 = getelementptr inbounds nuw %struct.anon.12, ptr %68, i32 0, i32 5
  store ptr %66, ptr %69, align 8, !tbaa !21
  %70 = load ptr, ptr %20, align 8, !tbaa !26
  %71 = load ptr, ptr %26, align 8, !tbaa !39
  %72 = getelementptr inbounds nuw %struct._stmt, ptr %71, i32 0, i32 1
  %73 = getelementptr inbounds nuw %struct.anon.12, ptr %72, i32 0, i32 6
  store ptr %70, ptr %73, align 8, !tbaa !21
  %74 = load i32, ptr %21, align 4, !tbaa !38
  %75 = load ptr, ptr %26, align 8, !tbaa !39
  %76 = getelementptr inbounds nuw %struct._stmt, ptr %75, i32 0, i32 2
  store i32 %74, ptr %76, align 8, !tbaa !43
  %77 = load i32, ptr %22, align 4, !tbaa !38
  %78 = load ptr, ptr %26, align 8, !tbaa !39
  %79 = getelementptr inbounds nuw %struct._stmt, ptr %78, i32 0, i32 3
  store i32 %77, ptr %79, align 4, !tbaa !44
  %80 = load i32, ptr %23, align 4, !tbaa !38
  %81 = load ptr, ptr %26, align 8, !tbaa !39
  %82 = getelementptr inbounds nuw %struct._stmt, ptr %81, i32 0, i32 4
  store i32 %80, ptr %82, align 8, !tbaa !45
  %83 = load i32, ptr %24, align 4, !tbaa !38
  %84 = load ptr, ptr %26, align 8, !tbaa !39
  %85 = getelementptr inbounds nuw %struct._stmt, ptr %84, i32 0, i32 5
  store i32 %83, ptr %85, align 4, !tbaa !46
  %86 = load ptr, ptr %26, align 8, !tbaa !39
  store ptr %86, ptr %13, align 8
  store i32 1, ptr %27, align 4
  br label %87

87:                                               ; preds = %43, %42, %35, %30
  call void @llvm.lifetime.end.p0(i64 8, ptr %26) #8
  %88 = load ptr, ptr %13, align 8
  ret ptr %88
}