; Function Attrs: nounwind uwtable
define hidden ptr @_PyAST_FunctionDef(ptr noundef %0, ptr noundef %1, ptr noundef %2, ptr noundef %3, ptr noundef %4, ptr noundef %5, ptr noundef %6, i32 noundef %7, i32 noundef %8, i32 noundef %9, i32 noundef %10, ptr noundef %11) local_unnamed_addr #0 {
  %.not = icmp eq ptr %0, null
  br i1 %.not, label %13, label %15

13:                                               ; preds = %12
  %14 = load ptr, ptr @PyExc_ValueError, align 8, !tbaa !4
  tail call void @PyErr_SetString(ptr noundef %14, ptr noundef nonnull @.str.2) #8
  br label %32

15:                                               ; preds = %12
  %.not31 = icmp eq ptr %1, null
  br i1 %.not31, label %16, label %18

16:                                               ; preds = %15
  %17 = load ptr, ptr @PyExc_ValueError, align 8, !tbaa !4
  tail call void @PyErr_SetString(ptr noundef %17, ptr noundef nonnull @.str.3) #8
  br label %32

18:                                               ; preds = %15
  %19 = tail call ptr @_PyArena_Malloc(ptr noundef %11, i64 noundef 80) #8
  %.not32 = icmp eq ptr %19, null
  br i1 %.not32, label %32, label %20

20:                                               ; preds = %18
  store i32 1, ptr %19, align 8, !tbaa !20
  %21 = getelementptr inbounds nuw i8, ptr %19, i64 8
  store ptr %0, ptr %21, align 8, !tbaa !9
  %22 = getelementptr inbounds nuw i8, ptr %19, i64 16
  store ptr %1, ptr %22, align 8, !tbaa !9
  %23 = getelementptr inbounds nuw i8, ptr %19, i64 24
  store ptr %2, ptr %23, align 8, !tbaa !9
  %24 = getelementptr inbounds nuw i8, ptr %19, i64 32
  store ptr %3, ptr %24, align 8, !tbaa !9
  %25 = getelementptr inbounds nuw i8, ptr %19, i64 40
  store ptr %4, ptr %25, align 8, !tbaa !9
  %26 = getelementptr inbounds nuw i8, ptr %19, i64 48
  store ptr %5, ptr %26, align 8, !tbaa !9
  %27 = getelementptr inbounds nuw i8, ptr %19, i64 56
  store ptr %6, ptr %27, align 8, !tbaa !9
  %28 = getelementptr inbounds nuw i8, ptr %19, i64 64
  store i32 %7, ptr %28, align 8, !tbaa !22
  %29 = getelementptr inbounds nuw i8, ptr %19, i64 68
  store i32 %8, ptr %29, align 4, !tbaa !23
  %30 = getelementptr inbounds nuw i8, ptr %19, i64 72
  store i32 %9, ptr %30, align 8, !tbaa !24
  %31 = getelementptr inbounds nuw i8, ptr %19, i64 76
  store i32 %10, ptr %31, align 4, !tbaa !25
  br label %32

32:                                               ; preds = %18, %20, %16, %13
  %.0 = phi ptr [ %19, %20 ], [ null, %16 ], [ null, %13 ], [ null, %18 ]
  ret ptr %.0
}